target datalayout = "e-m:e-p270:32:32-p271:32:32-p272:64:64-i64:64-i128:128-f80:128-n8:16:32:64-S128"
target triple = "x86_64-pc-linux-gnu"

%struct.PQExpBufferData = type { ptr, i64, i64 }

@.str.4 = private unnamed_addr constant [10 x i8] c"%s:%d: %s\00", align 1
@.str.5 = private unnamed_addr constant [6 x i8] c" (%s)\00", align 1
@.str.6 = private unnamed_addr constant [14 x i8] c" at column %d\00", align 1
@.str.7 = private unnamed_addr constant [17 x i8] c" in command \22%s\22\00", align 1
@.str.8 = private unnamed_addr constant [3 x i8] c"%s\00", align 1
@stderr = external global ptr, align 8
@.str.9 = private unnamed_addr constant [4 x i8] c"%s\0A\00", align 1
@.str.10 = private unnamed_addr constant [22 x i8] c"%*c error found here\0A\00", align 1

; Function Attrs: noreturn nounwind uwtable
define dso_local void @syntax_error(ptr noundef %0, i32 noundef %1, ptr noundef %2, ptr noundef %3, ptr noundef %4, ptr noundef %5, i32 noundef %6) #7 {
  %8 = alloca ptr, align 8
  %9 = alloca i32, align 4
  %10 = alloca ptr, align 8
  %11 = alloca ptr, align 8
  %12 = alloca ptr, align 8
  %13 = alloca ptr, align 8
  %14 = alloca i32, align 4
  %15 = alloca %struct.PQExpBufferData, align 8
  store ptr %0, ptr %8, align 8
  store i32 %1, ptr %9, align 4
  store ptr %2, ptr %10, align 8
  store ptr %3, ptr %11, align 8
  store ptr %4, ptr %12, align 8
  store ptr %5, ptr %13, align 8
  store i32 %6, ptr %14, align 4
  call void @llvm.lifetime.start.p0(i64 24, ptr %15) #14
  call void @initPQExpBuffer(ptr noundef %15)
  %16 = load ptr, ptr %8, align 8
  %17 = load i32, ptr %9, align 4
  %18 = load ptr, ptr %12, align 8
  call void (ptr, ptr, ...) @printfPQExpBuffer(ptr noundef %15, ptr noundef @.str.4, ptr noundef %16, i32 noundef %17, ptr noundef %18)
  %19 = load ptr, ptr %13, align 8
  %20 = icmp ne ptr %19, null
  br i1 %20, label %21, label %23

21:                                               ; preds = %7
  %22 = load ptr, ptr %13, align 8
  call void (ptr, ptr, ...) @appendPQExpBuffer(ptr noundef %15, ptr noundef @.str.5, ptr noundef %22)
  br label %23

23:                                               ; preds = %21, %7
  %24 = load i32, ptr %14, align 4
  %25 = icmp sge i32 %24, 0
  br i1 %25, label %26, label %32

26:                                               ; preds = %23
  %27 = load ptr, ptr %10, align 8
  %28 = icmp eq ptr %27, null
  br i1 %28, label %29, label %32

29:                                               ; preds = %26
  %30 = load i32, ptr %14, align 4
  %31 = add i32 %30, 1
  call void (ptr, ptr, ...) @appendPQExpBuffer(ptr noundef %15, ptr noundef @.str.6, i32 noundef %31)
  br label %32

32:                                               ; preds = %29, %26, %23
  %33 = load ptr, ptr %11, align 8
  %34 = icmp ne ptr %33, null
  br i1 %34, label %35, label %37

35:                                               ; preds = %32
  %36 = load ptr, ptr %11, align 8
  call void (ptr, ptr, ...) @appendPQExpBuffer(ptr noundef %15, ptr noundef @.str.7, ptr noundef %36)
  br label %37

37:                                               ; preds = %35, %32
  %38 = getelementptr inbounds nuw %struct.PQExpBufferData, ptr %15, i32 0, i32 0
  %39 = load ptr, ptr %38, align 8
  call void (i32, i32, ptr, ...) @pg_log_generic(i32 noundef 4, i32 noundef 0, ptr noundef @.str.8, ptr noundef %39)
  call void @termPQExpBuffer(ptr noundef %15)
  %40 = load ptr, ptr %10, align 8
  %41 = icmp ne ptr %40, null
  br i1 %41, label %42, label %54

42:                                               ; preds = %37
  %43 = load ptr, ptr @stderr, align 8
  %44 = load ptr, ptr %10, align 8
  %45 = call i32 (ptr, ptr, ...) @pg_fprintf(ptr noundef %43, ptr noundef @.str.9, ptr noundef %44)
  %46 = load i32, ptr %14, align 4
  %47 = icmp sge i32 %46, 0
  br i1 %47, label %48, label %53

48:                                               ; preds = %42
  %49 = load ptr, ptr @stderr, align 8
  %50 = load i32, ptr %14, align 4
  %51 = add i32 %50, 1
  %52 = call i32 (ptr, ptr, ...) @pg_fprintf(ptr noundef %49, ptr noundef @.str.10, i32 noundef %51, i32 noundef 94)
  br label %53

53:                                               ; preds = %48, %42
  br label %54

54:                                               ; preds = %53, %37
  call void @exit(i32 noundef 1) #16
  unreachable
}