; Function Attrs: noreturn nounwind uwtable
define dso_local void @syntax_error(ptr noundef %0, i32 noundef %1, ptr noundef %2, ptr noundef %3, ptr noundef %4, ptr noundef %5, i32 noundef %6) local_unnamed_addr #5 {
  %8 = alloca %struct.PQExpBufferData, align 8
  call void @llvm.lifetime.start.p0(i64 24, ptr nonnull %8) #25
  call void @initPQExpBuffer(ptr noundef nonnull %8) #25
  call void (ptr, ptr, ...) @printfPQExpBuffer(ptr noundef nonnull %8, ptr noundef nonnull @.str.4, ptr noundef %0, i32 noundef %1, ptr noundef %4) #25
  %.not = icmp eq ptr %5, null
  br i1 %.not, label %10, label %9

9:                                                ; preds = %7
  call void (ptr, ptr, ...) @appendPQExpBuffer(ptr noundef nonnull %8, ptr noundef nonnull @.str.5, ptr noundef nonnull %5) #25
  br label %10

10:                                               ; preds = %9, %7
  %11 = icmp sgt i32 %6, -1
  %12 = icmp eq ptr %2, null
  %or.cond = and i1 %12, %11
  br i1 %or.cond, label %13, label %15

13:                                               ; preds = %10
  %14 = add nuw i32 %6, 1
  call void (ptr, ptr, ...) @appendPQExpBuffer(ptr noundef nonnull %8, ptr noundef nonnull @.str.6, i32 noundef %14) #25
  br label %15

15:                                               ; preds = %13, %10
  %.not17 = icmp eq ptr %3, null
  br i1 %.not17, label %17, label %16

16:                                               ; preds = %15
  call void (ptr, ptr, ...) @appendPQExpBuffer(ptr noundef nonnull %8, ptr noundef nonnull @.str.7, ptr noundef nonnull %3) #25
  br label %17

17:                                               ; preds = %16, %15
  %18 = load ptr, ptr %8, align 8
  call void (i32, i32, ptr, ...) @pg_log_generic(i32 noundef 4, i32 noundef 0, ptr noundef nonnull @.str.8, ptr noundef %18) #25
  call void @termPQExpBuffer(ptr noundef nonnull %8) #25
  br i1 %12, label %26, label %19

19:                                               ; preds = %17
  %20 = load ptr, ptr @stderr, align 8
  %21 = call i32 (ptr, ptr, ...) @pg_fprintf(ptr noundef %20, ptr noundef nonnull @.str.9, ptr noundef nonnull %2) #25
  br i1 %11, label %22, label %26

22:                                               ; preds = %19
  %23 = load ptr, ptr @stderr, align 8
  %24 = add nuw i32 %6, 1
  %25 = call i32 (ptr, ptr, ...) @pg_fprintf(ptr noundef %23, ptr noundef nonnull @.str.10, i32 noundef %24, i32 noundef 94) #25
  br label %26

26:                                               ; preds = %19, %22, %17
  call void @exit(i32 noundef 1) #26
  unreachable
}